target datalayout = "e-m:e-p270:32:32-p271:32:32-p272:64:64-i64:64-i128:128-f80:128-n8:16:32:64-S128"
target triple = "x86_64-pc-linux-gnu"

%struct.SDL_VideoDevice = type { ptr, ptr, ptr, ptr, ptr, ptr, ptr, ptr, ptr, ptr, ptr, ptr, ptr, ptr, ptr, ptr, ptr, ptr, ptr, ptr, ptr, ptr, ptr, ptr, ptr, ptr, ptr, ptr, ptr, ptr, ptr, ptr, ptr, ptr, ptr, ptr, ptr, ptr, ptr, ptr, ptr, ptr, ptr, ptr, ptr, ptr, ptr, ptr, ptr, ptr, ptr, ptr, ptr, ptr, ptr, ptr, ptr, ptr, ptr, ptr, ptr, ptr, ptr, ptr, ptr, ptr, ptr, ptr, ptr, ptr, ptr, ptr, ptr, ptr, ptr, ptr, ptr, ptr, ptr, ptr, ptr, ptr, ptr, ptr, ptr, ptr, ptr, ptr, ptr, ptr, ptr, ptr, ptr, ptr, ptr, ptr, ptr, i64, i8, i8, i8, ptr, i32, ptr, %struct.SDL_Rect, ptr, ptr, i32, ptr, ptr, ptr, ptr, i64, ptr, i8, i32, i32, %struct.anon, ptr, ptr, ptr, ptr, ptr, ptr, %struct.SDL_AtomicInt, %struct.SDL_AtomicInt, i8, %struct.anon.0, ptr, ptr, ptr, ptr, ptr }
%struct.SDL_Rect = type { i32, i32, i32, i32 }
%struct.anon = type { i32, i32, i32, i32, i32, i32, i32, i32, i32, i32, i32, i32, i32, i32, i32, i32, i32, i32, i32, i32, i32, i32, i32, i32, i32, i32, i32, i32, i32, [256 x i8], ptr }
%struct.SDL_AtomicInt = type { i32 }
%struct.anon.0 = type { ptr, ptr, i32, [256 x i8], ptr }
%struct.SDL_GLDriverData = type { i32, i32, i8, i8, i8, i8, i8, i8, %struct.anon.1, i32, ptr, ptr, ptr, ptr, ptr, ptr, ptr, ptr, ptr, ptr, ptr, ptr, ptr, ptr, ptr }
%struct.anon.1 = type { i32, i32 }
%struct.SDL_VideoData = type { ptr, ptr, i32, ptr, i64, i32, ptr, i32, i64, i64, %struct.X11_ClipboardData, %struct.X11_ClipboardData, ptr, i64, %struct.X11_SettingsData, i8, %struct.anon.2, [256 x i32], i8, i8, i8, i64, i8, %struct.SDL_Point, i32, ptr, i32, i8, i32, %struct.anon.3, i8, i64, ptr, ptr, i8, i8, i8 }
%struct.X11_ClipboardData = type { ptr, ptr, ptr, i64, i32 }
%struct.X11_SettingsData = type { ptr }
%struct.anon.2 = type { i64, i64, i64, i64, i64, i64, i64, i64, i64, i64, i64, i64, i64, i64, i64, i64, i64, i64, i64, i64, i64, i64, i64, i64, i64, i64, i64, i64, i64, i64, i64, i64, i64, i64, i64, i64, i64, i64, i64, i64, i64, i64, i64, i64, i64, i64, i64, i64, i64, i64, i64, i64, i64 }
%struct.SDL_Point = type { i32, i32 }
%struct.anon.3 = type { ptr, i32, i32, i32, i16, i32, i32 }

@X11_XSync = external global ptr, align 8

; Function Attrs: nounwind uwtable
define hidden zeroext i1 @X11_GL_DestroyContext(ptr noundef %0, ptr noundef %1) #0 {
  %3 = alloca i1, align 1
  %4 = alloca ptr, align 8
  %5 = alloca ptr, align 8
  %6 = alloca ptr, align 8
  %7 = alloca ptr, align 8
  %8 = alloca i32, align 4
  store ptr %0, ptr %4, align 8
  store ptr %1, ptr %5, align 8
  call void @llvm.lifetime.start.p0(i64 8, ptr %6) #5
  %9 = load ptr, ptr %4, align 8
  %10 = getelementptr inbounds nuw %struct.SDL_VideoDevice, ptr %9, i32 0, i32 128
  %11 = load ptr, ptr %10, align 8
  %12 = getelementptr inbounds nuw %struct.SDL_VideoData, ptr %11, i32 0, i32 0
  %13 = load ptr, ptr %12, align 8
  store ptr %13, ptr %6, align 8
  call void @llvm.lifetime.start.p0(i64 8, ptr %7) #5
  %14 = load ptr, ptr %5, align 8
  store ptr %14, ptr %7, align 8
  %15 = load ptr, ptr %4, align 8
  %16 = getelementptr inbounds nuw %struct.SDL_VideoDevice, ptr %15, i32 0, i32 129
  %17 = load ptr, ptr %16, align 8
  %18 = icmp ne ptr %17, null
  br i1 %18, label %20, label %19

19:                                               ; preds = %2
  store i1 true, ptr %3, align 1
  store i32 1, ptr %8, align 4
  br label %31

20:                                               ; preds = %2
  %21 = load ptr, ptr %4, align 8
  %22 = getelementptr inbounds nuw %struct.SDL_VideoDevice, ptr %21, i32 0, i32 129
  %23 = load ptr, ptr %22, align 8
  %24 = getelementptr inbounds nuw %struct.SDL_GLDriverData, ptr %23, i32 0, i32 17
  %25 = load ptr, ptr %24, align 8
  %26 = load ptr, ptr %6, align 8
  %27 = load ptr, ptr %7, align 8
  call void %25(ptr noundef %26, ptr noundef %27)
  %28 = load ptr, ptr @X11_XSync, align 8
  %29 = load ptr, ptr %6, align 8
  %30 = call i32 %28(ptr noundef %29, i32 noundef 0)
  store i1 true, ptr %3, align 1
  store i32 1, ptr %8, align 4
  br label %31

31:                                               ; preds = %20, %19
  call void @llvm.lifetime.end.p0(i64 8, ptr %7) #5
  call void @llvm.lifetime.end.p0(i64 8, ptr %6) #5
  %32 = load i1, ptr %3, align 1
  ret i1 %32
}