; Function Attrs: nounwind uwtable
define hidden noundef zeroext i1 @X11_GL_DestroyContext(ptr noundef readonly captures(none) %0, ptr noundef %1) local_unnamed_addr #0 {
  %3 = getelementptr inbounds nuw i8, ptr %0, i64 1664
  %4 = load ptr, ptr %3, align 8
  %.not = icmp eq ptr %4, null
  br i1 %.not, label %13, label %5

5:                                                ; preds = %2
  %6 = getelementptr inbounds nuw i8, ptr %0, i64 1656
  %7 = load ptr, ptr %6, align 8
  %8 = load ptr, ptr %7, align 8
  %9 = getelementptr inbounds nuw i8, ptr %4, i64 88
  %10 = load ptr, ptr %9, align 8
  tail call void %10(ptr noundef %8, ptr noundef %1) #6
  %11 = load ptr, ptr @X11_XSync, align 8
  %12 = tail call i32 %11(ptr noundef %8, i32 noundef 0) #6
  br label %13

13:                                               ; preds = %2, %5
  ret i1 true
}